target datalayout = "e-m:e-p270:32:32-p271:32:32-p272:64:64-i64:64-i128:128-f80:128-n8:16:32:64-S128"
target triple = "x86_64-pc-linux-gnu"

%struct.AVClass = type { ptr, ptr, ptr, i32, i32, i32, i32, ptr, ptr, ptr, ptr, i32 }
%struct.AVProbeData = type { ptr, ptr, i32, ptr }
%struct.AVFormatContext = type { ptr, ptr, ptr, ptr, ptr, i32, i32, ptr, i32, ptr, i32, ptr, ptr, i64, i64, i64, i32, i32, i32, i64, i64, ptr, i32, i32, ptr, i32, i32, i32, i32, ptr, i64, i32, i32, %struct.AVIOInterruptCB, i32, i32, i32, i32, i64, i32, i32, i32, i32, i32, i32, i32, i32, i32, i32, i32, i32, i64, i32, i32, i32, i32, i32, ptr, ptr, ptr, ptr, i32, ptr, ptr, ptr, ptr, i32, ptr, ptr, i64, ptr, ptr, ptr, i64 }
%struct.AVIOInterruptCB = type { ptr, ptr }
%struct.AVPacket = type { ptr, i64, i64, ptr, i32, i32, i32, ptr, i32, i64, i64, ptr, ptr, %struct.AVRational }
%struct.AVRational = type { i32, i32 }

@.str = private unnamed_addr constant [10 x i8] c"ingenient\00", align 1
@.str.1 = private unnamed_addr constant [20 x i8] c"raw Ingenient MJPEG\00", align 1
@.str.2 = private unnamed_addr constant [4 x i8] c"cgi\00", align 1
@ff_rawvideo_demuxer_class = external constant %struct.AVClass, align 8
@ff_ingenient_demuxer = constant { { ptr, ptr, i32, [4 x i8], ptr, ptr, ptr, ptr }, i32, i32, i32, [4 x i8], ptr, ptr, ptr, ptr, ptr, ptr, ptr, ptr, ptr, ptr } { { ptr, ptr, i32, [4 x i8], ptr, ptr, ptr, ptr } { ptr @.str, ptr @.str.1, i32 256, [4 x i8] zeroinitializer, ptr @.str.2, ptr null, ptr @ff_rawvideo_demuxer_class, ptr null }, i32 7, i32 40, i32 0, [4 x i8] zeroinitializer, ptr @ingenient_probe, ptr @ff_raw_video_read_header, ptr @ingenient_read_packet, ptr null, ptr null, ptr null, ptr null, ptr null, ptr null, ptr null }, align 8
@.str.3 = private unnamed_addr constant [5 x i8] c"MJPG\00", align 1
@.str.4 = private unnamed_addr constant [65 x i8] c"Ingenient packet: size=%d, width=%d, height=%d, unk1=%d unk2=%d\0A\00", align 1

; Function Attrs: nounwind uwtable
define internal i32 @ingenient_probe(ptr noundef %0) #0 {
  %2 = alloca i32, align 4
  %3 = alloca ptr, align 8
  store ptr %0, ptr %3, align 8, !tbaa !4
  %4 = load ptr, ptr %3, align 8, !tbaa !4
  %5 = getelementptr inbounds nuw %struct.AVProbeData, ptr %4, i32 0, i32 1
  %6 = load ptr, ptr %5, align 8, !tbaa !9
  %7 = load i32, ptr %6, align 1, !tbaa !13
  %8 = load i32, ptr @.str.3, align 1, !tbaa !13
  %9 = icmp ne i32 %7, %8
  br i1 %9, label %24, label %10

10:                                               ; preds = %1
  %11 = load ptr, ptr %3, align 8, !tbaa !4
  %12 = getelementptr inbounds nuw %struct.AVProbeData, ptr %11, i32 0, i32 2
  %13 = load i32, ptr %12, align 8, !tbaa !14
  %14 = icmp slt i32 %13, 50
  br i1 %14, label %24, label %15

15:                                               ; preds = %10
  %16 = load ptr, ptr %3, align 8, !tbaa !4
  %17 = getelementptr inbounds nuw %struct.AVProbeData, ptr %16, i32 0, i32 1
  %18 = load ptr, ptr %17, align 8, !tbaa !9
  %19 = getelementptr inbounds i8, ptr %18, i64 48
  %20 = load i16, ptr %19, align 1, !tbaa !13
  %21 = call zeroext i16 @av_bswap16(i16 noundef zeroext %20) #4
  %22 = zext i16 %21 to i32
  %23 = icmp ne i32 %22, 65496
  br i1 %23, label %24, label %25

24:                                               ; preds = %15, %10, %1
  store i32 0, ptr %2, align 4
  br label %26

25:                                               ; preds = %15
  store i32 75, ptr %2, align 4
  br label %26

26:                                               ; preds = %25, %24
  %27 = load i32, ptr %2, align 4
  ret i32 %27
}

declare i32 @ff_raw_video_read_header(ptr noundef) #1

; Function Attrs: nounwind uwtable
define internal i32 @ingenient_read_packet(ptr noundef %0, ptr noundef %1) #0 {
  %3 = alloca i32, align 4
  %4 = alloca ptr, align 8
  %5 = alloca ptr, align 8
  %6 = alloca i32, align 4
  %7 = alloca i32, align 4
  %8 = alloca i32, align 4
  %9 = alloca i32, align 4
  %10 = alloca i32, align 4
  %11 = alloca i32, align 4
  %12 = alloca i32, align 4
  store ptr %0, ptr %4, align 8, !tbaa !15
  store ptr %1, ptr %5, align 8, !tbaa !17
  call void @llvm.lifetime.start.p0(i64 4, ptr %6) #5
  call void @llvm.lifetime.start.p0(i64 4, ptr %7) #5
  call void @llvm.lifetime.start.p0(i64 4, ptr %8) #5
  call void @llvm.lifetime.start.p0(i64 4, ptr %9) #5
  call void @llvm.lifetime.start.p0(i64 4, ptr %10) #5
  call void @llvm.lifetime.start.p0(i64 4, ptr %11) #5
  %13 = load ptr, ptr %4, align 8, !tbaa !15
  %14 = getelementptr inbounds nuw %struct.AVFormatContext, ptr %13, i32 0, i32 4
  %15 = load ptr, ptr %14, align 8, !tbaa !19
  %16 = call i32 @avio_rl32(ptr noundef %15)
  %17 = icmp ne i32 %16, 1196444237
  br i1 %17, label %18, label %19

18:                                               ; preds = %2
  store i32 -5, ptr %3, align 4
  store i32 1, ptr %12, align 4
  br label %72

19:                                               ; preds = %2
  %20 = load ptr, ptr %4, align 8, !tbaa !15
  %21 = getelementptr inbounds nuw %struct.AVFormatContext, ptr %20, i32 0, i32 4
  %22 = load ptr, ptr %21, align 8, !tbaa !19
  %23 = call i32 @avio_rl32(ptr noundef %22)
  store i32 %23, ptr %7, align 4, !tbaa !34
  %24 = load ptr, ptr %4, align 8, !tbaa !15
  %25 = getelementptr inbounds nuw %struct.AVFormatContext, ptr %24, i32 0, i32 4
  %26 = load ptr, ptr %25, align 8, !tbaa !19
  %27 = call i32 @avio_rl16(ptr noundef %26)
  store i32 %27, ptr %8, align 4, !tbaa !34
  %28 = load ptr, ptr %4, align 8, !tbaa !15
  %29 = getelementptr inbounds nuw %struct.AVFormatContext, ptr %28, i32 0, i32 4
  %30 = load ptr, ptr %29, align 8, !tbaa !19
  %31 = call i32 @avio_rl16(ptr noundef %30)
  store i32 %31, ptr %9, align 4, !tbaa !34
  %32 = load ptr, ptr %4, align 8, !tbaa !15
  %33 = getelementptr inbounds nuw %struct.AVFormatContext, ptr %32, i32 0, i32 4
  %34 = load ptr, ptr %33, align 8, !tbaa !19
  %35 = call i64 @avio_skip(ptr noundef %34, i64 noundef 8)
  %36 = load ptr, ptr %4, align 8, !tbaa !15
  %37 = getelementptr inbounds nuw %struct.AVFormatContext, ptr %36, i32 0, i32 4
  %38 = load ptr, ptr %37, align 8, !tbaa !19
  %39 = call i64 @avio_skip(ptr noundef %38, i64 noundef 2)
  %40 = load ptr, ptr %4, align 8, !tbaa !15
  %41 = getelementptr inbounds nuw %struct.AVFormatContext, ptr %40, i32 0, i32 4
  %42 = load ptr, ptr %41, align 8, !tbaa !19
  %43 = call i32 @avio_rl16(ptr noundef %42)
  store i32 %43, ptr %10, align 4, !tbaa !34
  %44 = load ptr, ptr %4, align 8, !tbaa !15
  %45 = getelementptr inbounds nuw %struct.AVFormatContext, ptr %44, i32 0, i32 4
  %46 = load ptr, ptr %45, align 8, !tbaa !19
  %47 = call i32 @avio_rl16(ptr noundef %46)
  store i32 %47, ptr %11, align 4, !tbaa !34
  %48 = load ptr, ptr %4, align 8, !tbaa !15
  %49 = getelementptr inbounds nuw %struct.AVFormatContext, ptr %48, i32 0, i32 4
  %50 = load ptr, ptr %49, align 8, !tbaa !19
  %51 = call i64 @avio_skip(ptr noundef %50, i64 noundef 22)
  %52 = load ptr, ptr %4, align 8, !tbaa !15
  %53 = load i32, ptr %7, align 4, !tbaa !34
  %54 = load i32, ptr %8, align 4, !tbaa !34
  %55 = load i32, ptr %9, align 4, !tbaa !34
  %56 = load i32, ptr %10, align 4, !tbaa !34
  %57 = load i32, ptr %11, align 4, !tbaa !34
  call void (ptr, i32, ptr, ...) @av_log(ptr noundef %52, i32 noundef 48, ptr noundef @.str.4, i32 noundef %53, i32 noundef %54, i32 noundef %55, i32 noundef %56, i32 noundef %57)
  %58 = load ptr, ptr %4, align 8, !tbaa !15
  %59 = getelementptr inbounds nuw %struct.AVFormatContext, ptr %58, i32 0, i32 4
  %60 = load ptr, ptr %59, align 8, !tbaa !19
  %61 = load ptr, ptr %5, align 8, !tbaa !17
  %62 = load i32, ptr %7, align 4, !tbaa !34
  %63 = call i32 @av_get_packet(ptr noundef %60, ptr noundef %61, i32 noundef %62)
  store i32 %63, ptr %6, align 4, !tbaa !34
  %64 = load i32, ptr %6, align 4, !tbaa !34
  %65 = icmp slt i32 %64, 0
  br i1 %65, label %66, label %68

66:                                               ; preds = %19
  %67 = load i32, ptr %6, align 4, !tbaa !34
  store i32 %67, ptr %3, align 4
  store i32 1, ptr %12, align 4
  br label %72

68:                                               ; preds = %19
  %69 = load ptr, ptr %5, align 8, !tbaa !17
  %70 = getelementptr inbounds nuw %struct.AVPacket, ptr %69, i32 0, i32 5
  store i32 0, ptr %70, align 4, !tbaa !35
  %71 = load i32, ptr %6, align 4, !tbaa !34
  store i32 %71, ptr %3, align 4
  store i32 1, ptr %12, align 4
  br label %72

72:                                               ; preds = %68, %66, %18
  call void @llvm.lifetime.end.p0(i64 4, ptr %11) #5
  call void @llvm.lifetime.end.p0(i64 4, ptr %10) #5
  call void @llvm.lifetime.end.p0(i64 4, ptr %9) #5
  call void @llvm.lifetime.end.p0(i64 4, ptr %8) #5
  call void @llvm.lifetime.end.p0(i64 4, ptr %7) #5
  call void @llvm.lifetime.end.p0(i64 4, ptr %6) #5
  %73 = load i32, ptr %3, align 4
  ret i32 %73
}

; Function Attrs: alwaysinline nounwind willreturn memory(none) uwtable
define internal zeroext i16 @av_bswap16(i16 noundef zeroext %0) #2 {
  %2 = alloca i16, align 2
  store i16 %0, ptr %2, align 2, !tbaa !40
  %3 = load i16, ptr %2, align 2, !tbaa !40
  %4 = zext i16 %3 to i32
  %5 = ashr i32 %4, 8
  %6 = load i16, ptr %2, align 2, !tbaa !40
  %7 = zext i16 %6 to i32
  %8 = shl i32 %7, 8
  %9 = or i32 %5, %8
  %10 = trunc i32 %9 to i16
  store i16 %10, ptr %2, align 2, !tbaa !40
  %11 = load i16, ptr %2, align 2, !tbaa !40
  ret i16 %11
}

; Function Attrs: nocallback nofree nosync nounwind willreturn memory(argmem: readwrite)
declare void @llvm.lifetime.start.p0(i64 immarg, ptr captures(none)) #3

declare i32 @avio_rl32(ptr noundef) #1

declare i32 @avio_rl16(ptr noundef) #1

declare i64 @avio_skip(ptr noundef, i64 noundef) #1

declare void @av_log(ptr noundef, i32 noundef, ptr noundef, ...) #1

declare i32 @av_get_packet(ptr noundef, ptr noundef, i32 noundef) #1

; Function Attrs: nocallback nofree nosync nounwind willreturn memory(argmem: readwrite)
declare void @llvm.lifetime.end.p0(i64 immarg, ptr captures(none)) #3


!llvm.module.flags = !{!0, !1, !2, !3}

!0 = !{i32 1, !"wchar_size", i32 4}
!1 = !{i32 8, !"PIC Level", i32 2}
!2 = !{i32 7, !"uwtable", i32 2}
!3 = !{i32 1, !"override-stack-alignment", i32 16}
!4 = !{!5, !5, i64 0}
!5 = !{!"p1 _ZTS11AVProbeData", !6, i64 0}
!6 = !{!"any pointer", !7, i64 0}
!7 = !{!"omnipotent char", !8, i64 0}
!8 = !{!"Simple C/C++ TBAA"}
!9 = !{!10, !11, i64 8}
!10 = !{!"AVProbeData", !11, i64 0, !11, i64 8, !12, i64 16, !11, i64 24}
!11 = !{!"p1 omnipotent char", !6, i64 0}
!12 = !{!"int", !7, i64 0}
!13 = !{!7, !7, i64 0}
!14 = !{!10, !12, i64 16}
!15 = !{!16, !16, i64 0}
!16 = !{!"p1 _ZTS15AVFormatContext", !6, i64 0}
!17 = !{!18, !18, i64 0}
!18 = !{!"p1 _ZTS8AVPacket", !6, i64 0}
!19 = !{!20, !24, i64 32}
!20 = !{!"AVFormatContext", !21, i64 0, !22, i64 8, !23, i64 16, !6, i64 24, !24, i64 32, !12, i64 40, !12, i64 44, !25, i64 48, !12, i64 56, !27, i64 64, !12, i64 72, !28, i64 80, !11, i64 88, !29, i64 96, !29, i64 104, !29, i64 112, !12, i64 120, !12, i64 124, !12, i64 128, !29, i64 136, !29, i64 144, !11, i64 152, !12, i64 160, !12, i64 164, !30, i64 168, !12, i64 176, !12, i64 180, !12, i64 184, !12, i64 188, !31, i64 192, !29, i64 200, !12, i64 208, !12, i64 212, !32, i64 216, !12, i64 232, !12, i64 236, !12, i64 240, !12, i64 244, !29, i64 248, !12, i64 256, !12, i64 260, !12, i64 264, !12, i64 268, !12, i64 272, !12, i64 276, !12, i64 280, !12, i64 284, !12, i64 288, !12, i64 292, !12, i64 296, !12, i64 300, !29, i64 304, !12, i64 312, !12, i64 316, !12, i64 320, !12, i64 324, !12, i64 328, !11, i64 336, !11, i64 344, !11, i64 352, !11, i64 360, !12, i64 368, !33, i64 376, !33, i64 384, !33, i64 392, !33, i64 400, !12, i64 408, !6, i64 416, !6, i64 424, !29, i64 432, !11, i64 440, !6, i64 448, !6, i64 456, !29, i64 464}
!21 = !{!"p1 _ZTS7AVClass", !6, i64 0}
!22 = !{!"p1 _ZTS13AVInputFormat", !6, i64 0}
!23 = !{!"p1 _ZTS14AVOutputFormat", !6, i64 0}
!24 = !{!"p1 _ZTS11AVIOContext", !6, i64 0}
!25 = !{!"p2 _ZTS8AVStream", !26, i64 0}
!26 = !{!"any p2 pointer", !6, i64 0}
!27 = !{!"p2 _ZTS13AVStreamGroup", !26, i64 0}
!28 = !{!"p2 _ZTS9AVChapter", !26, i64 0}
!29 = !{!"long", !7, i64 0}
!30 = !{!"p2 _ZTS9AVProgram", !26, i64 0}
!31 = !{!"p1 _ZTS12AVDictionary", !6, i64 0}
!32 = !{!"AVIOInterruptCB", !6, i64 0, !6, i64 8}
!33 = !{!"p1 _ZTS7AVCodec", !6, i64 0}
!34 = !{!12, !12, i64 0}
!35 = !{!36, !12, i64 36}
!36 = !{!"AVPacket", !37, i64 0, !29, i64 8, !29, i64 16, !11, i64 24, !12, i64 32, !12, i64 36, !12, i64 40, !38, i64 48, !12, i64 56, !29, i64 64, !29, i64 72, !6, i64 80, !37, i64 88, !39, i64 96}
!37 = !{!"p1 _ZTS11AVBufferRef", !6, i64 0}
!38 = !{!"p1 _ZTS16AVPacketSideData", !6, i64 0}
!39 = !{!"AVRational", !12, i64 0, !12, i64 4}
!40 = !{!41, !41, i64 0}
!41 = !{!"short", !7, i64 0}
